target datalayout = "e-m:e-p270:32:32-p271:32:32-p272:64:64-i64:64-i128:128-f80:128-n8:16:32:64-S128"
target triple = "x86_64-pc-linux-gnu"

@.str.4 = private unnamed_addr constant [24 x i8] c"Cannot read file \22%s\22.\0A\00", align 1
@.str.5 = private unnamed_addr constant [3 x i8] c"0x\00", align 1
@.str.6 = private unnamed_addr constant [54 x i8] c"Cannot read truth table %d (out of %d) in file \22%s\22.\0A\00", align 1

; Function Attrs: inlinehint nounwind uwtable
define internal i32 @Abc_TtWordNum(i32 noundef %0) #3 {
  %2 = alloca i32, align 4
  store i32 %0, ptr %2, align 4, !tbaa !14
  %3 = load i32, ptr %2, align 4, !tbaa !14
  %4 = icmp sle i32 %3, 6
  br i1 %4, label %5, label %6

5:                                                ; preds = %1
  br label %10

6:                                                ; preds = %1
  %7 = load i32, ptr %2, align 4, !tbaa !14
  %8 = sub nsw i32 %7, 6
  %9 = shl i32 1, %8
  br label %10

10:                                               ; preds = %6, %5
  %11 = phi i32 [ 1, %5 ], [ %9, %6 ]
  ret i32 %11
}

; Function Attrs: nounwind uwtable
define i32 @Vec_WrdReadTruthTextOne(ptr noundef %0, i32 noundef %1, i32 noundef %2, ptr noundef %3) #0 {
  %5 = alloca i32, align 4
  %6 = alloca ptr, align 8
  %7 = alloca i32, align 4
  %8 = alloca i32, align 4
  %9 = alloca ptr, align 8
  %10 = alloca i32, align 4
  %11 = alloca i32, align 4
  %12 = alloca ptr, align 8
  %13 = alloca ptr, align 8
  %14 = alloca i32, align 4
  store ptr %0, ptr %6, align 8, !tbaa !3
  store i32 %1, ptr %7, align 4, !tbaa !14
  store i32 %2, ptr %8, align 4, !tbaa !14
  store ptr %3, ptr %9, align 8, !tbaa !30
  call void @llvm.lifetime.start.p0(i64 4, ptr %10) #13
  call void @llvm.lifetime.start.p0(i64 4, ptr %11) #13
  %15 = load i32, ptr %7, align 4, !tbaa !14
  %16 = call i32 @Abc_TtWordNum(i32 noundef %15)
  store i32 %16, ptr %11, align 4, !tbaa !14
  call void @llvm.lifetime.start.p0(i64 8, ptr %12) #13
  call void @llvm.lifetime.start.p0(i64 8, ptr %13) #13
  %17 = load ptr, ptr %6, align 8, !tbaa !3
  %18 = call ptr @Extra_FileReadContents(ptr noundef %17)
  store ptr %18, ptr %13, align 8, !tbaa !3
  %19 = load ptr, ptr %13, align 8, !tbaa !3
  %20 = icmp eq ptr %19, null
  br i1 %20, label %21, label %24

21:                                               ; preds = %4
  %22 = load ptr, ptr %6, align 8, !tbaa !3
  %23 = call i32 (ptr, ...) @printf(ptr noundef @.str.4, ptr noundef %22)
  store i32 0, ptr %5, align 4
  store i32 1, ptr %14, align 4
  br label %68

24:                                               ; preds = %4
  %25 = load ptr, ptr %13, align 8, !tbaa !3
  store ptr %25, ptr %12, align 8, !tbaa !3
  store i32 0, ptr %10, align 4, !tbaa !14
  br label %26

26:                                               ; preds = %58, %24
  %27 = load i32, ptr %10, align 4, !tbaa !14
  %28 = load i32, ptr %8, align 4, !tbaa !14
  %29 = icmp slt i32 %27, %28
  br i1 %29, label %30, label %61

30:                                               ; preds = %26
  %31 = load ptr, ptr %12, align 8, !tbaa !3
  %32 = getelementptr inbounds i8, ptr %31, i64 1
  %33 = call ptr @strstr(ptr noundef %32, ptr noundef @.str.5) #14
  store ptr %33, ptr %12, align 8, !tbaa !3
  %34 = load ptr, ptr %9, align 8, !tbaa !30
  %35 = load i32, ptr %10, align 4, !tbaa !14
  %36 = load i32, ptr %11, align 4, !tbaa !14
  %37 = mul nsw i32 %35, %36
  %38 = sext i32 %37 to i64
  %39 = getelementptr inbounds i64, ptr %34, i64 %38
  %40 = load ptr, ptr %12, align 8, !tbaa !3
  %41 = getelementptr inbounds i8, ptr %40, i64 2
  %42 = load i32, ptr %11, align 4, !tbaa !14
  %43 = mul nsw i32 %42, 16
  %44 = call i32 @Extra_ReadHex(ptr noundef %39, ptr noundef %41, i32 noundef %43)
  %45 = icmp ne i32 %44, 0
  br i1 %45, label %57, label %46

46:                                               ; preds = %30
  %47 = load i32, ptr %10, align 4, !tbaa !14
  %48 = load i32, ptr %8, align 4, !tbaa !14
  %49 = load ptr, ptr %6, align 8, !tbaa !3
  %50 = call i32 (ptr, ...) @printf(ptr noundef @.str.6, i32 noundef %47, i32 noundef %48, ptr noundef %49)
  %51 = load ptr, ptr %13, align 8, !tbaa !3
  %52 = icmp ne ptr %51, null
  br i1 %52, label %53, label %55

53:                                               ; preds = %46
  %54 = load ptr, ptr %13, align 8, !tbaa !3
  call void @free(ptr noundef %54) #13
  store ptr null, ptr %13, align 8, !tbaa !3
  br label %56

55:                                               ; preds = %46
  br label %56

56:                                               ; preds = %55, %53
  store i32 0, ptr %5, align 4
  store i32 1, ptr %14, align 4
  br label %68

57:                                               ; preds = %30
  br label %58

58:                                               ; preds = %57
  %59 = load i32, ptr %10, align 4, !tbaa !14
  %60 = add nsw i32 %59, 1
  store i32 %60, ptr %10, align 4, !tbaa !14
  br label %26, !llvm.loop !32

61:                                               ; preds = %26
  %62 = load ptr, ptr %13, align 8, !tbaa !3
  %63 = icmp ne ptr %62, null
  br i1 %63, label %64, label %66

64:                                               ; preds = %61
  %65 = load ptr, ptr %13, align 8, !tbaa !3
  call void @free(ptr noundef %65) #13
  store ptr null, ptr %13, align 8, !tbaa !3
  br label %67

66:                                               ; preds = %61
  br label %67

67:                                               ; preds = %66, %64
  store i32 1, ptr %5, align 4
  store i32 1, ptr %14, align 4
  br label %68

68:                                               ; preds = %67, %56, %21
  call void @llvm.lifetime.end.p0(i64 8, ptr %13) #13
  call void @llvm.lifetime.end.p0(i64 8, ptr %12) #13
  call void @llvm.lifetime.end.p0(i64 4, ptr %11) #13
  call void @llvm.lifetime.end.p0(i64 4, ptr %10) #13
  %69 = load i32, ptr %5, align 4
  ret i32 %69
}