; Function Attrs: nounwind uwtable
define range(i32 0, 2) i32 @Vec_WrdReadTruthTextOne(ptr noundef %0, i32 noundef %1, i32 noundef %2, ptr noundef %3) local_unnamed_addr #0 {
  %5 = icmp slt i32 %1, 7
  %6 = add nsw i32 %1, -6
  %7 = tail call ptr @Extra_FileReadContents(ptr noundef %0) #24
  %8 = icmp eq ptr %7, null
  br i1 %8, label %13, label %.preheader

.preheader:                                       ; preds = %4
  %9 = icmp sgt i32 %2, 0
  br i1 %9, label %.lr.ph, label %._crit_edge

.lr.ph:                                           ; preds = %.preheader
  %10 = select i1 %5, i32 0, i32 %6
  %11 = shl i32 16, %6
  %12 = select i1 %5, i32 16, i32 %11
  br label %15

13:                                               ; preds = %4
  %14 = tail call i32 (ptr, ...) @printf(ptr noundef nonnull dereferenceable(1) @.str.4, ptr noundef %0)
  br label %27

15:                                               ; preds = %.lr.ph, %25
  %.027 = phi ptr [ %7, %.lr.ph ], [ %17, %25 ]
  %.02226 = phi i32 [ 0, %.lr.ph ], [ %26, %25 ]
  %16 = getelementptr inbounds nuw i8, ptr %.027, i64 1
  %17 = tail call ptr @strstr(ptr noundef nonnull dereferenceable(1) %16, ptr noundef nonnull dereferenceable(1) @.str.5) #27
  %18 = shl i32 %.02226, %10
  %19 = sext i32 %18 to i64
  %20 = getelementptr inbounds i64, ptr %3, i64 %19
  %21 = getelementptr inbounds nuw i8, ptr %17, i64 2
  %22 = tail call i32 @Extra_ReadHex(ptr noundef %20, ptr noundef nonnull %21, i32 noundef %12) #24
  %.not = icmp eq i32 %22, 0
  br i1 %.not, label %23, label %25

23:                                               ; preds = %15
  %24 = tail call i32 (ptr, ...) @printf(ptr noundef nonnull dereferenceable(1) @.str.6, i32 noundef %.02226, i32 noundef %2, ptr noundef %0)
  tail call void @free(ptr noundef %7) #24
  br label %27

25:                                               ; preds = %15
  %26 = add nuw nsw i32 %.02226, 1
  %exitcond.not = icmp eq i32 %26, %2
  br i1 %exitcond.not, label %._crit_edge, label %15, !llvm.loop !22

._crit_edge:                                      ; preds = %25, %.preheader
  tail call void @free(ptr noundef %7) #24
  br label %27

27:                                               ; preds = %._crit_edge, %23, %13
  %.021 = phi i32 [ 0, %13 ], [ 0, %23 ], [ 1, %._crit_edge ]
  ret i32 %.021
}